target datalayout = "e-m:e-p270:32:32-p271:32:32-p272:64:64-i64:64-i128:128-f80:128-n8:16:32:64-S128"
target triple = "x86_64-pc-linux-gnu"

%struct.HeapTupleData = type { i32, %struct.ItemPointerData, i32, ptr }
%struct.ItemPointerData = type { %struct.BlockIdData, i16 }
%struct.BlockIdData = type { i16, i16 }
%struct.HeapTupleHeaderData = type { %union.anon, %struct.ItemPointerData, i16, i16, i8, [0 x i8] }
%union.anon = type { %struct.HeapTupleFields }
%struct.HeapTupleFields = type { i32, i32, %union.anon.0 }
%union.anon.0 = type { i32 }
%struct.ForEachState = type { ptr, i32 }
%struct.List = type { i32, i32, i32, ptr, [0 x %union.ListCell] }
%union.ListCell = type { ptr }
%struct.catclist = type { i32, i32, %struct.dlist_node, [4 x i64], i32, i8, i8, i16, i32, ptr, [0 x ptr] }
%struct.dlist_node = type { ptr, ptr }
%struct.catctup = type { i32, i32, [4 x i64], %struct.dlist_node, i32, i8, i8, %struct.HeapTupleData, ptr, ptr }
%struct.FormData_pg_publication_rel = type { i32, i32, i32 }
%struct.FormData_pg_publication_namespace = type { i32, i32, i32 }

; Function Attrs: inlinehint nounwind uwtable
define internal ptr @GETSTRUCT(ptr noundef %0) #2 {
  %2 = alloca ptr, align 8
  store ptr %0, ptr %2, align 8
  %3 = load ptr, ptr %2, align 8
  %4 = getelementptr inbounds nuw %struct.HeapTupleData, ptr %3, i32 0, i32 3
  %5 = load ptr, ptr %4, align 8
  %6 = load ptr, ptr %2, align 8
  %7 = getelementptr inbounds nuw %struct.HeapTupleData, ptr %6, i32 0, i32 3
  %8 = load ptr, ptr %7, align 8
  %9 = getelementptr inbounds nuw %struct.HeapTupleHeaderData, ptr %8, i32 0, i32 4
  %10 = load i8, ptr %9, align 2
  %11 = zext i8 %10 to i32
  %12 = sext i32 %11 to i64
  %13 = getelementptr inbounds i8, ptr %5, i64 %12
  ret ptr %13
}

; Function Attrs: inlinehint nounwind uwtable
define internal i64 @ObjectIdGetDatum(i32 noundef %0) #2 {
  %2 = alloca i32, align 4
  store i32 %0, ptr %2, align 4
  %3 = load i32, ptr %2, align 4
  %4 = zext i32 %3 to i64
  ret i64 %4
}

; Function Attrs: nounwind uwtable
define dso_local ptr @GetSchemaPublications(i32 noundef %0) #0 {
  %2 = alloca i32, align 4
  %3 = alloca ptr, align 8
  %4 = alloca ptr, align 8
  %5 = alloca i32, align 4
  %6 = alloca ptr, align 8
  %7 = alloca i32, align 4
  store i32 %0, ptr %2, align 4
  call void @llvm.lifetime.start.p0(i64 8, ptr %3) #7
  store ptr null, ptr %3, align 8
  call void @llvm.lifetime.start.p0(i64 8, ptr %4) #7
  call void @llvm.lifetime.start.p0(i64 4, ptr %5) #7
  %8 = load i32, ptr %2, align 4
  %9 = call i64 @ObjectIdGetDatum(i32 noundef %8)
  %10 = call ptr @SearchSysCacheList(i32 noundef 50, i32 noundef 1, i64 noundef %9, i64 noundef 0, i64 noundef 0)
  store ptr %10, ptr %4, align 8
  store i32 0, ptr %5, align 4
  br label %11

11:                                               ; preds = %32, %1
  %12 = load i32, ptr %5, align 4
  %13 = load ptr, ptr %4, align 8
  %14 = getelementptr inbounds nuw %struct.catclist, ptr %13, i32 0, i32 8
  %15 = load i32, ptr %14, align 8
  %16 = icmp slt i32 %12, %15
  br i1 %16, label %17, label %35

17:                                               ; preds = %11
  call void @llvm.lifetime.start.p0(i64 8, ptr %6) #7
  %18 = load ptr, ptr %4, align 8
  %19 = getelementptr inbounds nuw %struct.catclist, ptr %18, i32 0, i32 10
  %20 = load i32, ptr %5, align 4
  %21 = sext i32 %20 to i64
  %22 = getelementptr inbounds [0 x ptr], ptr %19, i64 0, i64 %21
  %23 = load ptr, ptr %22, align 8
  %24 = getelementptr inbounds nuw %struct.catctup, ptr %23, i32 0, i32 7
  store ptr %24, ptr %6, align 8
  call void @llvm.lifetime.start.p0(i64 4, ptr %7) #7
  %25 = load ptr, ptr %6, align 8
  %26 = call ptr @GETSTRUCT(ptr noundef %25)
  %27 = getelementptr inbounds nuw %struct.FormData_pg_publication_namespace, ptr %26, i32 0, i32 1
  %28 = load i32, ptr %27, align 4
  store i32 %28, ptr %7, align 4
  %29 = load ptr, ptr %3, align 8
  %30 = load i32, ptr %7, align 4
  %31 = call ptr @lappend_oid(ptr noundef %29, i32 noundef %30)
  store ptr %31, ptr %3, align 8
  call void @llvm.lifetime.end.p0(i64 4, ptr %7) #7
  call void @llvm.lifetime.end.p0(i64 8, ptr %6) #7
  br label %32

32:                                               ; preds = %17
  %33 = load i32, ptr %5, align 4
  %34 = add i32 %33, 1
  store i32 %34, ptr %5, align 4
  br label %11, !llvm.loop !11

35:                                               ; preds = %11
  %36 = load ptr, ptr %4, align 8
  call void @ReleaseCatCacheList(ptr noundef %36)
  %37 = load ptr, ptr %3, align 8
  call void @llvm.lifetime.end.p0(i64 4, ptr %5) #7
  call void @llvm.lifetime.end.p0(i64 8, ptr %4) #7
  call void @llvm.lifetime.end.p0(i64 8, ptr %3) #7
  ret ptr %37
}

; Function Attrs: nounwind uwtable
define dso_local ptr @GetRelationPublications(i32 noundef %0) #0 {
  %2 = alloca i32, align 4
  %3 = alloca ptr, align 8
  %4 = alloca ptr, align 8
  %5 = alloca i32, align 4
  %6 = alloca ptr, align 8
  %7 = alloca i32, align 4
  store i32 %0, ptr %2, align 4
  call void @llvm.lifetime.start.p0(i64 8, ptr %3) #7
  store ptr null, ptr %3, align 8
  call void @llvm.lifetime.start.p0(i64 8, ptr %4) #7
  call void @llvm.lifetime.start.p0(i64 4, ptr %5) #7
  %8 = load i32, ptr %2, align 4
  %9 = call i64 @ObjectIdGetDatum(i32 noundef %8)
  %10 = call ptr @SearchSysCacheList(i32 noundef 53, i32 noundef 1, i64 noundef %9, i64 noundef 0, i64 noundef 0)
  store ptr %10, ptr %4, align 8
  store i32 0, ptr %5, align 4
  br label %11

11:                                               ; preds = %32, %1
  %12 = load i32, ptr %5, align 4
  %13 = load ptr, ptr %4, align 8
  %14 = getelementptr inbounds nuw %struct.catclist, ptr %13, i32 0, i32 8
  %15 = load i32, ptr %14, align 8
  %16 = icmp slt i32 %12, %15
  br i1 %16, label %17, label %35

17:                                               ; preds = %11
  call void @llvm.lifetime.start.p0(i64 8, ptr %6) #7
  %18 = load ptr, ptr %4, align 8
  %19 = getelementptr inbounds nuw %struct.catclist, ptr %18, i32 0, i32 10
  %20 = load i32, ptr %5, align 4
  %21 = sext i32 %20 to i64
  %22 = getelementptr inbounds [0 x ptr], ptr %19, i64 0, i64 %21
  %23 = load ptr, ptr %22, align 8
  %24 = getelementptr inbounds nuw %struct.catctup, ptr %23, i32 0, i32 7
  store ptr %24, ptr %6, align 8
  call void @llvm.lifetime.start.p0(i64 4, ptr %7) #7
  %25 = load ptr, ptr %6, align 8
  %26 = call ptr @GETSTRUCT(ptr noundef %25)
  %27 = getelementptr inbounds nuw %struct.FormData_pg_publication_rel, ptr %26, i32 0, i32 1
  %28 = load i32, ptr %27, align 4
  store i32 %28, ptr %7, align 4
  %29 = load ptr, ptr %3, align 8
  %30 = load i32, ptr %7, align 4
  %31 = call ptr @lappend_oid(ptr noundef %29, i32 noundef %30)
  store ptr %31, ptr %3, align 8
  call void @llvm.lifetime.end.p0(i64 4, ptr %7) #7
  call void @llvm.lifetime.end.p0(i64 8, ptr %6) #7
  br label %32

32:                                               ; preds = %17
  %33 = load i32, ptr %5, align 4
  %34 = add i32 %33, 1
  store i32 %34, ptr %5, align 4
  br label %11, !llvm.loop !10

35:                                               ; preds = %11
  %36 = load ptr, ptr %4, align 8
  call void @ReleaseCatCacheList(ptr noundef %36)
  %37 = load ptr, ptr %3, align 8
  call void @llvm.lifetime.end.p0(i64 4, ptr %5) #7
  call void @llvm.lifetime.end.p0(i64 8, ptr %4) #7
  call void @llvm.lifetime.end.p0(i64 8, ptr %3) #7
  ret ptr %37
}

; Function Attrs: nounwind uwtable
define dso_local i32 @GetTopMostAncestorInPublication(i32 noundef %0, ptr noundef %1, ptr noundef %2) #0 {
  %4 = alloca i32, align 4
  %5 = alloca ptr, align 8
  %6 = alloca ptr, align 8
  %7 = alloca ptr, align 8
  %8 = alloca i32, align 4
  %9 = alloca i32, align 4
  %10 = alloca %struct.ForEachState, align 8
  %11 = alloca i32, align 4
  %12 = alloca ptr, align 8
  %13 = alloca ptr, align 8
  store i32 %0, ptr %4, align 4
  store ptr %1, ptr %5, align 8
  store ptr %2, ptr %6, align 8
  call void @llvm.lifetime.start.p0(i64 8, ptr %7) #7
  call void @llvm.lifetime.start.p0(i64 4, ptr %8) #7
  store i32 0, ptr %8, align 4
  call void @llvm.lifetime.start.p0(i64 4, ptr %9) #7
  store i32 0, ptr %9, align 4
  call void @llvm.lifetime.start.p0(i64 16, ptr %10) #7
  %14 = getelementptr inbounds nuw %struct.ForEachState, ptr %10, i32 0, i32 0
  %15 = load ptr, ptr %5, align 8
  store ptr %15, ptr %14, align 8
  %16 = getelementptr inbounds nuw %struct.ForEachState, ptr %10, i32 0, i32 1
  store i32 0, ptr %16, align 8
  %17 = getelementptr i8, ptr %10, i64 12
  call void @llvm.memset.p0.i64(ptr align 4 %17, i8 0, i64 4, i1 false)
  br label %18

18:                                               ; preds = %81, %3
  %19 = getelementptr inbounds nuw %struct.ForEachState, ptr %10, i32 0, i32 0
  %20 = load ptr, ptr %19, align 8
  %21 = icmp ne ptr %20, null
  br i1 %21, label %22, label %39

22:                                               ; preds = %18
  %23 = getelementptr inbounds nuw %struct.ForEachState, ptr %10, i32 0, i32 1
  %24 = load i32, ptr %23, align 8
  %25 = getelementptr inbounds nuw %struct.ForEachState, ptr %10, i32 0, i32 0
  %26 = load ptr, ptr %25, align 8
  %27 = getelementptr inbounds nuw %struct.List, ptr %26, i32 0, i32 1
  %28 = load i32, ptr %27, align 4
  %29 = icmp slt i32 %24, %28
  br i1 %29, label %30, label %39

30:                                               ; preds = %22
  %31 = getelementptr inbounds nuw %struct.ForEachState, ptr %10, i32 0, i32 0
  %32 = load ptr, ptr %31, align 8
  %33 = getelementptr inbounds nuw %struct.List, ptr %32, i32 0, i32 3
  %34 = load ptr, ptr %33, align 8
  %35 = getelementptr inbounds nuw %struct.ForEachState, ptr %10, i32 0, i32 1
  %36 = load i32, ptr %35, align 8
  %37 = sext i32 %36 to i64
  %38 = getelementptr inbounds %union.ListCell, ptr %34, i64 %37
  store ptr %38, ptr %7, align 8
  br label %40

39:                                               ; preds = %22, %18
  store ptr null, ptr %7, align 8
  br label %40

40:                                               ; preds = %39, %30
  %41 = phi i32 [ 1, %30 ], [ 0, %39 ]
  %42 = icmp ne i32 %41, 0
  br i1 %42, label %44, label %43

43:                                               ; preds = %40
  call void @llvm.lifetime.end.p0(i64 16, ptr %10) #7
  br label %85

44:                                               ; preds = %40
  call void @llvm.lifetime.start.p0(i64 4, ptr %11) #7
  %45 = load ptr, ptr %7, align 8
  %46 = load i32, ptr %45, align 8
  store i32 %46, ptr %11, align 4
  call void @llvm.lifetime.start.p0(i64 8, ptr %12) #7
  %47 = load i32, ptr %11, align 4
  %48 = call ptr @GetRelationPublications(i32 noundef %47)
  store ptr %48, ptr %12, align 8
  call void @llvm.lifetime.start.p0(i64 8, ptr %13) #7
  store ptr null, ptr %13, align 8
  %49 = load i32, ptr %9, align 4
  %50 = add i32 %49, 1
  store i32 %50, ptr %9, align 4
  %51 = load ptr, ptr %12, align 8
  %52 = load i32, ptr %4, align 4
  %53 = call zeroext i1 @list_member_oid(ptr noundef %51, i32 noundef %52)
  br i1 %53, label %54, label %62

54:                                               ; preds = %44
  %55 = load i32, ptr %11, align 4
  store i32 %55, ptr %8, align 4
  %56 = load ptr, ptr %6, align 8
  %57 = icmp ne ptr %56, null
  br i1 %57, label %58, label %61

58:                                               ; preds = %54
  %59 = load i32, ptr %9, align 4
  %60 = load ptr, ptr %6, align 8
  store i32 %59, ptr %60, align 4
  br label %61

61:                                               ; preds = %58, %54
  br label %78

62:                                               ; preds = %44
  %63 = load i32, ptr %11, align 4
  %64 = call i32 @get_rel_namespace(i32 noundef %63)
  %65 = call ptr @GetSchemaPublications(i32 noundef %64)
  store ptr %65, ptr %13, align 8
  %66 = load ptr, ptr %13, align 8
  %67 = load i32, ptr %4, align 4
  %68 = call zeroext i1 @list_member_oid(ptr noundef %66, i32 noundef %67)
  br i1 %68, label %69, label %77

69:                                               ; preds = %62
  %70 = load i32, ptr %11, align 4
  store i32 %70, ptr %8, align 4
  %71 = load ptr, ptr %6, align 8
  %72 = icmp ne ptr %71, null
  br i1 %72, label %73, label %76

73:                                               ; preds = %69
  %74 = load i32, ptr %9, align 4
  %75 = load ptr, ptr %6, align 8
  store i32 %74, ptr %75, align 4
  br label %76

76:                                               ; preds = %73, %69
  br label %77

77:                                               ; preds = %76, %62
  br label %78

78:                                               ; preds = %77, %61
  %79 = load ptr, ptr %12, align 8
  call void @list_free(ptr noundef %79)
  %80 = load ptr, ptr %13, align 8
  call void @list_free(ptr noundef %80)
  call void @llvm.lifetime.end.p0(i64 8, ptr %13) #7
  call void @llvm.lifetime.end.p0(i64 8, ptr %12) #7
  call void @llvm.lifetime.end.p0(i64 4, ptr %11) #7
  br label %81

81:                                               ; preds = %78
  %82 = getelementptr inbounds nuw %struct.ForEachState, ptr %10, i32 0, i32 1
  %83 = load i32, ptr %82, align 8
  %84 = add i32 %83, 1
  store i32 %84, ptr %82, align 8
  br label %18, !llvm.loop !9

85:                                               ; preds = %43
  %86 = load i32, ptr %8, align 4
  call void @llvm.lifetime.end.p0(i64 4, ptr %9) #7
  call void @llvm.lifetime.end.p0(i64 4, ptr %8) #7
  call void @llvm.lifetime.end.p0(i64 8, ptr %7) #7
  ret i32 %86
}