; Function Attrs: nounwind uwtable
define dso_local i32 @GetTopMostAncestorInPublication(i32 noundef %0, ptr noundef readonly captures(address_is_null) %1, ptr noundef writeonly captures(address_is_null) %2) local_unnamed_addr #0 {
  %4 = getelementptr inbounds nuw i8, ptr %1, i64 4
  %.not = icmp eq ptr %1, null
  br i1 %.not, label %._crit_edge, label %.lr.ph

.lr.ph:                                           ; preds = %3
  %5 = getelementptr inbounds nuw i8, ptr %1, i64 16
  %.not30 = icmp ne ptr %2, null
  %.not31 = icmp eq ptr %2, null
  %6 = load i32, ptr %4, align 4
  %7 = icmp sgt i32 %6, 0
  br i1 %7, label %.lr.ph55, label %._crit_edge

._crit_edge:                                      ; preds = %56, %.lr.ph, %3
  %.024.lcssa = phi i32 [ 0, %3 ], [ 0, %.lr.ph ], [ %.1, %56 ]
  ret i32 %.024.lcssa

.lr.ph55:                                         ; preds = %.lr.ph, %56
  %.0244354 = phi i32 [ %.1, %56 ], [ 0, %.lr.ph ]
  %indvars.iv53 = phi i64 [ %indvars.iv.next, %56 ], [ 0, %.lr.ph ]
  %8 = load ptr, ptr %5, align 8
  %9 = getelementptr inbounds nuw %union.ListCell, ptr %8, i64 %indvars.iv53
  %10 = load i32, ptr %9, align 8
  %11 = zext i32 %10 to i64
  %12 = tail call ptr @SearchSysCacheList(i32 noundef 53, i32 noundef 1, i64 noundef %11, i64 noundef 0, i64 noundef 0) #6
  %13 = getelementptr inbounds nuw i8, ptr %12, i64 64
  %14 = load i32, ptr %13, align 8
  %15 = icmp sgt i32 %14, 0
  br i1 %15, label %.lr.ph.i, label %GetRelationPublications.exit

.lr.ph.i:                                         ; preds = %.lr.ph55
  %16 = getelementptr inbounds nuw i8, ptr %12, i64 80
  br label %17

17:                                               ; preds = %17, %.lr.ph.i
  %indvars.iv.i = phi i64 [ 0, %.lr.ph.i ], [ %indvars.iv.next.i, %17 ]
  %.012.i = phi ptr [ null, %.lr.ph.i ], [ %27, %17 ]
  %18 = getelementptr inbounds nuw [0 x ptr], ptr %16, i64 0, i64 %indvars.iv.i
  %19 = load ptr, ptr %18, align 8
  %20 = getelementptr i8, ptr %19, i64 80
  %.val.i = load ptr, ptr %20, align 8
  %21 = getelementptr inbounds nuw i8, ptr %.val.i, i64 22
  %22 = load i8, ptr %21, align 2
  %23 = zext i8 %22 to i64
  %24 = getelementptr inbounds nuw i8, ptr %.val.i, i64 %23
  %25 = getelementptr inbounds nuw i8, ptr %24, i64 4
  %26 = load i32, ptr %25, align 4
  %27 = tail call ptr @lappend_oid(ptr noundef %.012.i, i32 noundef %26) #6
  %indvars.iv.next.i = add nuw nsw i64 %indvars.iv.i, 1
  %28 = load i32, ptr %13, align 8
  %29 = sext i32 %28 to i64
  %30 = icmp slt i64 %indvars.iv.next.i, %29
  br i1 %30, label %17, label %GetRelationPublications.exit, !llvm.loop !8

GetRelationPublications.exit:                     ; preds = %17, %.lr.ph55
  %.0.lcssa.i = phi ptr [ null, %.lr.ph55 ], [ %27, %17 ]
  tail call void @ReleaseCatCacheList(ptr noundef nonnull %12) #6
  %indvars.iv.next = add nuw nsw i64 %indvars.iv53, 1
  %indvars = trunc i64 %indvars.iv.next to i32
  %31 = tail call zeroext i1 @list_member_oid(ptr noundef %.0.lcssa.i, i32 noundef %0) #6
  br i1 %31, label %32, label %33

32:                                               ; preds = %GetRelationPublications.exit
  br i1 %.not31, label %56, label %.sink.split

33:                                               ; preds = %GetRelationPublications.exit
  %34 = tail call i32 @get_rel_namespace(i32 noundef %10) #6
  %35 = zext i32 %34 to i64
  %36 = tail call ptr @SearchSysCacheList(i32 noundef 50, i32 noundef 1, i64 noundef %35, i64 noundef 0, i64 noundef 0) #6
  %37 = getelementptr inbounds nuw i8, ptr %36, i64 64
  %38 = load i32, ptr %37, align 8
  %39 = icmp sgt i32 %38, 0
  br i1 %39, label %.lr.ph.i33, label %GetSchemaPublications.exit

.lr.ph.i33:                                       ; preds = %33
  %40 = getelementptr inbounds nuw i8, ptr %36, i64 80
  br label %41

41:                                               ; preds = %41, %.lr.ph.i33
  %indvars.iv.i34 = phi i64 [ 0, %.lr.ph.i33 ], [ %indvars.iv.next.i37, %41 ]
  %.012.i35 = phi ptr [ null, %.lr.ph.i33 ], [ %51, %41 ]
  %42 = getelementptr inbounds nuw [0 x ptr], ptr %40, i64 0, i64 %indvars.iv.i34
  %43 = load ptr, ptr %42, align 8
  %44 = getelementptr i8, ptr %43, i64 80
  %.val.i36 = load ptr, ptr %44, align 8
  %45 = getelementptr inbounds nuw i8, ptr %.val.i36, i64 22
  %46 = load i8, ptr %45, align 2
  %47 = zext i8 %46 to i64
  %48 = getelementptr inbounds nuw i8, ptr %.val.i36, i64 %47
  %49 = getelementptr inbounds nuw i8, ptr %48, i64 4
  %50 = load i32, ptr %49, align 4
  %51 = tail call ptr @lappend_oid(ptr noundef %.012.i35, i32 noundef %50) #6
  %indvars.iv.next.i37 = add nuw nsw i64 %indvars.iv.i34, 1
  %52 = load i32, ptr %37, align 8
  %53 = sext i32 %52 to i64
  %54 = icmp slt i64 %indvars.iv.next.i37, %53
  br i1 %54, label %41, label %GetSchemaPublications.exit, !llvm.loop !9

GetSchemaPublications.exit:                       ; preds = %41, %33
  %.0.lcssa.i32 = phi ptr [ null, %33 ], [ %51, %41 ]
  tail call void @ReleaseCatCacheList(ptr noundef nonnull %36) #6
  %55 = tail call zeroext i1 @list_member_oid(ptr noundef %.0.lcssa.i32, i32 noundef %0) #6
  %brmerge.not = and i1 %.not30, %55
  %.02443.mux = select i1 %55, i32 %10, i32 %.0244354
  br i1 %brmerge.not, label %.sink.split, label %56

.sink.split:                                      ; preds = %GetSchemaPublications.exit, %32
  %.0.ph = phi ptr [ null, %32 ], [ %.0.lcssa.i32, %GetSchemaPublications.exit ]
  store i32 %indvars, ptr %2, align 4
  br label %56

56:                                               ; preds = %.sink.split, %GetSchemaPublications.exit, %32
  %.1 = phi i32 [ %10, %32 ], [ %.02443.mux, %GetSchemaPublications.exit ], [ %10, %.sink.split ]
  %.0 = phi ptr [ null, %32 ], [ %.0.lcssa.i32, %GetSchemaPublications.exit ], [ %.0.ph, %.sink.split ]
  tail call void @list_free(ptr noundef %.0.lcssa.i) #6
  tail call void @list_free(ptr noundef %.0) #6
  %57 = load i32, ptr %4, align 4
  %58 = sext i32 %57 to i64
  %59 = icmp slt i64 %indvars.iv.next, %58
  br i1 %59, label %.lr.ph55, label %._crit_edge
}